target datalayout = "e-m:e-p270:32:32-p271:32:32-p272:64:64-i64:64-i128:128-f80:128-n8:16:32:64-S128"
target triple = "x86_64-pc-linux-gnu"

%struct.PHP_SHA512_CTX = type { [8 x i64], [2 x i64], [128 x i8] }

@PADDING = internal constant <{ i8, [127 x i8] }> <{ i8 -128, [127 x i8] zeroinitializer }>, align 16

; Function Attrs: nounwind uwtable
define internal void @SHAEncode64(ptr noundef %0, ptr noundef %1, i32 noundef %2) #1 {
  %4 = alloca ptr, align 8
  %5 = alloca ptr, align 8
  %6 = alloca i32, align 4
  %7 = alloca i32, align 4
  %8 = alloca i32, align 4
  store ptr %0, ptr %4, align 8
  store ptr %1, ptr %5, align 8
  store i32 %2, ptr %6, align 4
  store i32 0, ptr %7, align 4
  store i32 0, ptr %8, align 4
  br label %9

9:                                                ; preds = %116, %3
  %10 = load i32, ptr %8, align 4
  %11 = load i32, ptr %6, align 4
  %12 = icmp ult i32 %10, %11
  br i1 %12, label %13, label %121

13:                                               ; preds = %9
  %14 = load ptr, ptr %5, align 8
  %15 = load i32, ptr %7, align 4
  %16 = zext i32 %15 to i64
  %17 = getelementptr inbounds i64, ptr %14, i64 %16
  %18 = load i64, ptr %17, align 8
  %19 = lshr i64 %18, 56
  %20 = and i64 %19, 255
  %21 = trunc i64 %20 to i8
  %22 = load ptr, ptr %4, align 8
  %23 = load i32, ptr %8, align 4
  %24 = zext i32 %23 to i64
  %25 = getelementptr inbounds i8, ptr %22, i64 %24
  store i8 %21, ptr %25, align 1
  %26 = load ptr, ptr %5, align 8
  %27 = load i32, ptr %7, align 4
  %28 = zext i32 %27 to i64
  %29 = getelementptr inbounds i64, ptr %26, i64 %28
  %30 = load i64, ptr %29, align 8
  %31 = lshr i64 %30, 48
  %32 = and i64 %31, 255
  %33 = trunc i64 %32 to i8
  %34 = load ptr, ptr %4, align 8
  %35 = load i32, ptr %8, align 4
  %36 = add i32 %35, 1
  %37 = zext i32 %36 to i64
  %38 = getelementptr inbounds i8, ptr %34, i64 %37
  store i8 %33, ptr %38, align 1
  %39 = load ptr, ptr %5, align 8
  %40 = load i32, ptr %7, align 4
  %41 = zext i32 %40 to i64
  %42 = getelementptr inbounds i64, ptr %39, i64 %41
  %43 = load i64, ptr %42, align 8
  %44 = lshr i64 %43, 40
  %45 = and i64 %44, 255
  %46 = trunc i64 %45 to i8
  %47 = load ptr, ptr %4, align 8
  %48 = load i32, ptr %8, align 4
  %49 = add i32 %48, 2
  %50 = zext i32 %49 to i64
  %51 = getelementptr inbounds i8, ptr %47, i64 %50
  store i8 %46, ptr %51, align 1
  %52 = load ptr, ptr %5, align 8
  %53 = load i32, ptr %7, align 4
  %54 = zext i32 %53 to i64
  %55 = getelementptr inbounds i64, ptr %52, i64 %54
  %56 = load i64, ptr %55, align 8
  %57 = lshr i64 %56, 32
  %58 = and i64 %57, 255
  %59 = trunc i64 %58 to i8
  %60 = load ptr, ptr %4, align 8
  %61 = load i32, ptr %8, align 4
  %62 = add i32 %61, 3
  %63 = zext i32 %62 to i64
  %64 = getelementptr inbounds i8, ptr %60, i64 %63
  store i8 %59, ptr %64, align 1
  %65 = load ptr, ptr %5, align 8
  %66 = load i32, ptr %7, align 4
  %67 = zext i32 %66 to i64
  %68 = getelementptr inbounds i64, ptr %65, i64 %67
  %69 = load i64, ptr %68, align 8
  %70 = lshr i64 %69, 24
  %71 = and i64 %70, 255
  %72 = trunc i64 %71 to i8
  %73 = load ptr, ptr %4, align 8
  %74 = load i32, ptr %8, align 4
  %75 = add i32 %74, 4
  %76 = zext i32 %75 to i64
  %77 = getelementptr inbounds i8, ptr %73, i64 %76
  store i8 %72, ptr %77, align 1
  %78 = load ptr, ptr %5, align 8
  %79 = load i32, ptr %7, align 4
  %80 = zext i32 %79 to i64
  %81 = getelementptr inbounds i64, ptr %78, i64 %80
  %82 = load i64, ptr %81, align 8
  %83 = lshr i64 %82, 16
  %84 = and i64 %83, 255
  %85 = trunc i64 %84 to i8
  %86 = load ptr, ptr %4, align 8
  %87 = load i32, ptr %8, align 4
  %88 = add i32 %87, 5
  %89 = zext i32 %88 to i64
  %90 = getelementptr inbounds i8, ptr %86, i64 %89
  store i8 %85, ptr %90, align 1
  %91 = load ptr, ptr %5, align 8
  %92 = load i32, ptr %7, align 4
  %93 = zext i32 %92 to i64
  %94 = getelementptr inbounds i64, ptr %91, i64 %93
  %95 = load i64, ptr %94, align 8
  %96 = lshr i64 %95, 8
  %97 = and i64 %96, 255
  %98 = trunc i64 %97 to i8
  %99 = load ptr, ptr %4, align 8
  %100 = load i32, ptr %8, align 4
  %101 = add i32 %100, 6
  %102 = zext i32 %101 to i64
  %103 = getelementptr inbounds i8, ptr %99, i64 %102
  store i8 %98, ptr %103, align 1
  %104 = load ptr, ptr %5, align 8
  %105 = load i32, ptr %7, align 4
  %106 = zext i32 %105 to i64
  %107 = getelementptr inbounds i64, ptr %104, i64 %106
  %108 = load i64, ptr %107, align 8
  %109 = and i64 %108, 255
  %110 = trunc i64 %109 to i8
  %111 = load ptr, ptr %4, align 8
  %112 = load i32, ptr %8, align 4
  %113 = add i32 %112, 7
  %114 = zext i32 %113 to i64
  %115 = getelementptr inbounds i8, ptr %111, i64 %114
  store i8 %110, ptr %115, align 1
  br label %116

116:                                              ; preds = %13
  %117 = load i32, ptr %7, align 4
  %118 = add i32 %117, 1
  store i32 %118, ptr %7, align 4
  %119 = load i32, ptr %8, align 4
  %120 = add i32 %119, 8
  store i32 %120, ptr %8, align 4
  br label %9

121:                                              ; preds = %9
  ret void
}

; Function Attrs: nounwind uwtable
define void @PHP_SHA512Update(ptr noundef %0, ptr noundef %1, i64 noundef %2) #1 {
  %4 = alloca ptr, align 8
  %5 = alloca ptr, align 8
  %6 = alloca i64, align 8
  %7 = alloca i32, align 4
  %8 = alloca i32, align 4
  %9 = alloca i64, align 8
  store ptr %0, ptr %4, align 8
  store ptr %1, ptr %5, align 8
  store i64 %2, ptr %6, align 8
  %10 = load ptr, ptr %4, align 8
  %11 = getelementptr inbounds %struct.PHP_SHA512_CTX, ptr %10, i32 0, i32 1
  %12 = getelementptr inbounds [2 x i64], ptr %11, i64 0, i64 0
  %13 = load i64, ptr %12, align 8
  %14 = lshr i64 %13, 3
  %15 = and i64 %14, 127
  %16 = trunc i64 %15 to i32
  store i32 %16, ptr %7, align 4
  %17 = load i64, ptr %6, align 8
  %18 = shl i64 %17, 3
  %19 = load ptr, ptr %4, align 8
  %20 = getelementptr inbounds %struct.PHP_SHA512_CTX, ptr %19, i32 0, i32 1
  %21 = getelementptr inbounds [2 x i64], ptr %20, i64 0, i64 0
  %22 = load i64, ptr %21, align 8
  %23 = add i64 %22, %18
  store i64 %23, ptr %21, align 8
  %24 = load i64, ptr %6, align 8
  %25 = shl i64 %24, 3
  %26 = icmp ult i64 %23, %25
  br i1 %26, label %27, label %33

27:                                               ; preds = %3
  %28 = load ptr, ptr %4, align 8
  %29 = getelementptr inbounds %struct.PHP_SHA512_CTX, ptr %28, i32 0, i32 1
  %30 = getelementptr inbounds [2 x i64], ptr %29, i64 0, i64 1
  %31 = load i64, ptr %30, align 8
  %32 = add i64 %31, 1
  store i64 %32, ptr %30, align 8
  br label %33

33:                                               ; preds = %27, %3
  %34 = load i64, ptr %6, align 8
  %35 = lshr i64 %34, 61
  %36 = load ptr, ptr %4, align 8
  %37 = getelementptr inbounds %struct.PHP_SHA512_CTX, ptr %36, i32 0, i32 1
  %38 = getelementptr inbounds [2 x i64], ptr %37, i64 0, i64 1
  %39 = load i64, ptr %38, align 8
  %40 = add i64 %39, %35
  store i64 %40, ptr %38, align 8
  %41 = load i32, ptr %7, align 4
  %42 = sub i32 128, %41
  store i32 %42, ptr %8, align 4
  %43 = load i64, ptr %6, align 8
  %44 = load i32, ptr %8, align 4
  %45 = zext i32 %44 to i64
  %46 = icmp uge i64 %43, %45
  br i1 %46, label %47, label %80

47:                                               ; preds = %33
  %48 = load ptr, ptr %4, align 8
  %49 = getelementptr inbounds %struct.PHP_SHA512_CTX, ptr %48, i32 0, i32 2
  %50 = load i32, ptr %7, align 4
  %51 = zext i32 %50 to i64
  %52 = getelementptr inbounds [128 x i8], ptr %49, i64 0, i64 %51
  %53 = load ptr, ptr %5, align 8
  %54 = load i32, ptr %8, align 4
  %55 = zext i32 %54 to i64
  call void @llvm.memcpy.p0.p0.i64(ptr align 1 %52, ptr align 1 %53, i64 %55, i1 false)
  %56 = load ptr, ptr %4, align 8
  %57 = getelementptr inbounds %struct.PHP_SHA512_CTX, ptr %56, i32 0, i32 0
  %58 = getelementptr inbounds [8 x i64], ptr %57, i64 0, i64 0
  %59 = load ptr, ptr %4, align 8
  %60 = getelementptr inbounds %struct.PHP_SHA512_CTX, ptr %59, i32 0, i32 2
  %61 = getelementptr inbounds [128 x i8], ptr %60, i64 0, i64 0
  call void @SHA512Transform(ptr noundef %58, ptr noundef %61)
  %62 = load i32, ptr %8, align 4
  %63 = zext i32 %62 to i64
  store i64 %63, ptr %9, align 8
  br label %64

64:                                               ; preds = %76, %47
  %65 = load i64, ptr %9, align 8
  %66 = add i64 %65, 127
  %67 = load i64, ptr %6, align 8
  %68 = icmp ult i64 %66, %67
  br i1 %68, label %69, label %79

69:                                               ; preds = %64
  %70 = load ptr, ptr %4, align 8
  %71 = getelementptr inbounds %struct.PHP_SHA512_CTX, ptr %70, i32 0, i32 0
  %72 = getelementptr inbounds [8 x i64], ptr %71, i64 0, i64 0
  %73 = load ptr, ptr %5, align 8
  %74 = load i64, ptr %9, align 8
  %75 = getelementptr inbounds i8, ptr %73, i64 %74
  call void @SHA512Transform(ptr noundef %72, ptr noundef %75)
  br label %76

76:                                               ; preds = %69
  %77 = load i64, ptr %9, align 8
  %78 = add i64 %77, 128
  store i64 %78, ptr %9, align 8
  br label %64

79:                                               ; preds = %64
  store i32 0, ptr %7, align 4
  br label %81

80:                                               ; preds = %33
  store i64 0, ptr %9, align 8
  br label %81

81:                                               ; preds = %80, %79
  %82 = load ptr, ptr %4, align 8
  %83 = getelementptr inbounds %struct.PHP_SHA512_CTX, ptr %82, i32 0, i32 2
  %84 = load i32, ptr %7, align 4
  %85 = zext i32 %84 to i64
  %86 = getelementptr inbounds [128 x i8], ptr %83, i64 0, i64 %85
  %87 = load ptr, ptr %5, align 8
  %88 = load i64, ptr %9, align 8
  %89 = getelementptr inbounds i8, ptr %87, i64 %88
  %90 = load i64, ptr %6, align 8
  %91 = load i64, ptr %9, align 8
  %92 = sub i64 %90, %91
  call void @llvm.memcpy.p0.p0.i64(ptr align 1 %86, ptr align 1 %89, i64 %92, i1 false)
  ret void
}

; Function Attrs: nounwind uwtable
define void @PHP_SHA512Final(ptr noundef %0, ptr noundef %1) #1 {
  %3 = alloca ptr, align 8
  %4 = alloca ptr, align 8
  %5 = alloca [16 x i8], align 16
  %6 = alloca i32, align 4
  %7 = alloca i32, align 4
  store ptr %0, ptr %3, align 8
  store ptr %1, ptr %4, align 8
  %8 = load ptr, ptr %4, align 8
  %9 = getelementptr inbounds %struct.PHP_SHA512_CTX, ptr %8, i32 0, i32 1
  %10 = getelementptr inbounds [2 x i64], ptr %9, i64 0, i64 0
  %11 = load i64, ptr %10, align 8
  %12 = and i64 %11, 255
  %13 = trunc i64 %12 to i8
  %14 = getelementptr inbounds [16 x i8], ptr %5, i64 0, i64 15
  store i8 %13, ptr %14, align 1
  %15 = load ptr, ptr %4, align 8
  %16 = getelementptr inbounds %struct.PHP_SHA512_CTX, ptr %15, i32 0, i32 1
  %17 = getelementptr inbounds [2 x i64], ptr %16, i64 0, i64 0
  %18 = load i64, ptr %17, align 8
  %19 = lshr i64 %18, 8
  %20 = and i64 %19, 255
  %21 = trunc i64 %20 to i8
  %22 = getelementptr inbounds [16 x i8], ptr %5, i64 0, i64 14
  store i8 %21, ptr %22, align 2
  %23 = load ptr, ptr %4, align 8
  %24 = getelementptr inbounds %struct.PHP_SHA512_CTX, ptr %23, i32 0, i32 1
  %25 = getelementptr inbounds [2 x i64], ptr %24, i64 0, i64 0
  %26 = load i64, ptr %25, align 8
  %27 = lshr i64 %26, 16
  %28 = and i64 %27, 255
  %29 = trunc i64 %28 to i8
  %30 = getelementptr inbounds [16 x i8], ptr %5, i64 0, i64 13
  store i8 %29, ptr %30, align 1
  %31 = load ptr, ptr %4, align 8
  %32 = getelementptr inbounds %struct.PHP_SHA512_CTX, ptr %31, i32 0, i32 1
  %33 = getelementptr inbounds [2 x i64], ptr %32, i64 0, i64 0
  %34 = load i64, ptr %33, align 8
  %35 = lshr i64 %34, 24
  %36 = and i64 %35, 255
  %37 = trunc i64 %36 to i8
  %38 = getelementptr inbounds [16 x i8], ptr %5, i64 0, i64 12
  store i8 %37, ptr %38, align 4
  %39 = load ptr, ptr %4, align 8
  %40 = getelementptr inbounds %struct.PHP_SHA512_CTX, ptr %39, i32 0, i32 1
  %41 = getelementptr inbounds [2 x i64], ptr %40, i64 0, i64 0
  %42 = load i64, ptr %41, align 8
  %43 = lshr i64 %42, 32
  %44 = and i64 %43, 255
  %45 = trunc i64 %44 to i8
  %46 = getelementptr inbounds [16 x i8], ptr %5, i64 0, i64 11
  store i8 %45, ptr %46, align 1
  %47 = load ptr, ptr %4, align 8
  %48 = getelementptr inbounds %struct.PHP_SHA512_CTX, ptr %47, i32 0, i32 1
  %49 = getelementptr inbounds [2 x i64], ptr %48, i64 0, i64 0
  %50 = load i64, ptr %49, align 8
  %51 = lshr i64 %50, 40
  %52 = and i64 %51, 255
  %53 = trunc i64 %52 to i8
  %54 = getelementptr inbounds [16 x i8], ptr %5, i64 0, i64 10
  store i8 %53, ptr %54, align 2
  %55 = load ptr, ptr %4, align 8
  %56 = getelementptr inbounds %struct.PHP_SHA512_CTX, ptr %55, i32 0, i32 1
  %57 = getelementptr inbounds [2 x i64], ptr %56, i64 0, i64 0
  %58 = load i64, ptr %57, align 8
  %59 = lshr i64 %58, 48
  %60 = and i64 %59, 255
  %61 = trunc i64 %60 to i8
  %62 = getelementptr inbounds [16 x i8], ptr %5, i64 0, i64 9
  store i8 %61, ptr %62, align 1
  %63 = load ptr, ptr %4, align 8
  %64 = getelementptr inbounds %struct.PHP_SHA512_CTX, ptr %63, i32 0, i32 1
  %65 = getelementptr inbounds [2 x i64], ptr %64, i64 0, i64 0
  %66 = load i64, ptr %65, align 8
  %67 = lshr i64 %66, 56
  %68 = and i64 %67, 255
  %69 = trunc i64 %68 to i8
  %70 = getelementptr inbounds [16 x i8], ptr %5, i64 0, i64 8
  store i8 %69, ptr %70, align 8
  %71 = load ptr, ptr %4, align 8
  %72 = getelementptr inbounds %struct.PHP_SHA512_CTX, ptr %71, i32 0, i32 1
  %73 = getelementptr inbounds [2 x i64], ptr %72, i64 0, i64 1
  %74 = load i64, ptr %73, align 8
  %75 = and i64 %74, 255
  %76 = trunc i64 %75 to i8
  %77 = getelementptr inbounds [16 x i8], ptr %5, i64 0, i64 7
  store i8 %76, ptr %77, align 1
  %78 = load ptr, ptr %4, align 8
  %79 = getelementptr inbounds %struct.PHP_SHA512_CTX, ptr %78, i32 0, i32 1
  %80 = getelementptr inbounds [2 x i64], ptr %79, i64 0, i64 1
  %81 = load i64, ptr %80, align 8
  %82 = lshr i64 %81, 8
  %83 = and i64 %82, 255
  %84 = trunc i64 %83 to i8
  %85 = getelementptr inbounds [16 x i8], ptr %5, i64 0, i64 6
  store i8 %84, ptr %85, align 2
  %86 = load ptr, ptr %4, align 8
  %87 = getelementptr inbounds %struct.PHP_SHA512_CTX, ptr %86, i32 0, i32 1
  %88 = getelementptr inbounds [2 x i64], ptr %87, i64 0, i64 1
  %89 = load i64, ptr %88, align 8
  %90 = lshr i64 %89, 16
  %91 = and i64 %90, 255
  %92 = trunc i64 %91 to i8
  %93 = getelementptr inbounds [16 x i8], ptr %5, i64 0, i64 5
  store i8 %92, ptr %93, align 1
  %94 = load ptr, ptr %4, align 8
  %95 = getelementptr inbounds %struct.PHP_SHA512_CTX, ptr %94, i32 0, i32 1
  %96 = getelementptr inbounds [2 x i64], ptr %95, i64 0, i64 1
  %97 = load i64, ptr %96, align 8
  %98 = lshr i64 %97, 24
  %99 = and i64 %98, 255
  %100 = trunc i64 %99 to i8
  %101 = getelementptr inbounds [16 x i8], ptr %5, i64 0, i64 4
  store i8 %100, ptr %101, align 4
  %102 = load ptr, ptr %4, align 8
  %103 = getelementptr inbounds %struct.PHP_SHA512_CTX, ptr %102, i32 0, i32 1
  %104 = getelementptr inbounds [2 x i64], ptr %103, i64 0, i64 1
  %105 = load i64, ptr %104, align 8
  %106 = lshr i64 %105, 32
  %107 = and i64 %106, 255
  %108 = trunc i64 %107 to i8
  %109 = getelementptr inbounds [16 x i8], ptr %5, i64 0, i64 3
  store i8 %108, ptr %109, align 1
  %110 = load ptr, ptr %4, align 8
  %111 = getelementptr inbounds %struct.PHP_SHA512_CTX, ptr %110, i32 0, i32 1
  %112 = getelementptr inbounds [2 x i64], ptr %111, i64 0, i64 1
  %113 = load i64, ptr %112, align 8
  %114 = lshr i64 %113, 40
  %115 = and i64 %114, 255
  %116 = trunc i64 %115 to i8
  %117 = getelementptr inbounds [16 x i8], ptr %5, i64 0, i64 2
  store i8 %116, ptr %117, align 2
  %118 = load ptr, ptr %4, align 8
  %119 = getelementptr inbounds %struct.PHP_SHA512_CTX, ptr %118, i32 0, i32 1
  %120 = getelementptr inbounds [2 x i64], ptr %119, i64 0, i64 1
  %121 = load i64, ptr %120, align 8
  %122 = lshr i64 %121, 48
  %123 = and i64 %122, 255
  %124 = trunc i64 %123 to i8
  %125 = getelementptr inbounds [16 x i8], ptr %5, i64 0, i64 1
  store i8 %124, ptr %125, align 1
  %126 = load ptr, ptr %4, align 8
  %127 = getelementptr inbounds %struct.PHP_SHA512_CTX, ptr %126, i32 0, i32 1
  %128 = getelementptr inbounds [2 x i64], ptr %127, i64 0, i64 1
  %129 = load i64, ptr %128, align 8
  %130 = lshr i64 %129, 56
  %131 = and i64 %130, 255
  %132 = trunc i64 %131 to i8
  %133 = getelementptr inbounds [16 x i8], ptr %5, i64 0, i64 0
  store i8 %132, ptr %133, align 16
  %134 = load ptr, ptr %4, align 8
  %135 = getelementptr inbounds %struct.PHP_SHA512_CTX, ptr %134, i32 0, i32 1
  %136 = getelementptr inbounds [2 x i64], ptr %135, i64 0, i64 0
  %137 = load i64, ptr %136, align 8
  %138 = lshr i64 %137, 3
  %139 = and i64 %138, 127
  %140 = trunc i64 %139 to i32
  store i32 %140, ptr %6, align 4
  %141 = load i32, ptr %6, align 4
  %142 = icmp ult i32 %141, 112
  br i1 %142, label %143, label %146

143:                                              ; preds = %2
  %144 = load i32, ptr %6, align 4
  %145 = sub i32 112, %144
  br label %149

146:                                              ; preds = %2
  %147 = load i32, ptr %6, align 4
  %148 = sub i32 240, %147
  br label %149

149:                                              ; preds = %146, %143
  %150 = phi i32 [ %145, %143 ], [ %148, %146 ]
  store i32 %150, ptr %7, align 4
  %151 = load ptr, ptr %4, align 8
  %152 = load i32, ptr %7, align 4
  %153 = zext i32 %152 to i64
  call void @PHP_SHA512Update(ptr noundef %151, ptr noundef @PADDING, i64 noundef %153)
  %154 = load ptr, ptr %4, align 8
  %155 = getelementptr inbounds [16 x i8], ptr %5, i64 0, i64 0
  call void @PHP_SHA512Update(ptr noundef %154, ptr noundef %155, i64 noundef 16)
  %156 = load ptr, ptr %3, align 8
  %157 = load ptr, ptr %4, align 8
  %158 = getelementptr inbounds %struct.PHP_SHA512_CTX, ptr %157, i32 0, i32 0
  %159 = getelementptr inbounds [8 x i64], ptr %158, i64 0, i64 0
  call void @SHAEncode64(ptr noundef %156, ptr noundef %159, i32 noundef 64)
  %160 = load ptr, ptr %4, align 8
  call void @explicit_bzero(ptr noundef %160, i64 noundef 208) #4
  ret void
}