; Function Attrs: nounwind uwtable
define void @PHP_SHA512Final(ptr nocapture noundef writeonly %0, ptr noundef %1) #2 {
  %3 = alloca [16 x i8], align 16
  %4 = getelementptr inbounds i8, ptr %1, i64 64
  %5 = load i64, ptr %4, align 8
  %6 = trunc i64 %5 to i8
  %7 = getelementptr inbounds i8, ptr %3, i64 15
  store i8 %6, ptr %7, align 1
  %8 = lshr i64 %5, 8
  %9 = trunc i64 %8 to i8
  %10 = getelementptr inbounds i8, ptr %3, i64 14
  store i8 %9, ptr %10, align 2
  %11 = lshr i64 %5, 16
  %12 = trunc i64 %11 to i8
  %13 = getelementptr inbounds i8, ptr %3, i64 13
  store i8 %12, ptr %13, align 1
  %14 = lshr i64 %5, 24
  %15 = trunc i64 %14 to i8
  %16 = getelementptr inbounds i8, ptr %3, i64 12
  store i8 %15, ptr %16, align 4
  %17 = lshr i64 %5, 32
  %18 = trunc i64 %17 to i8
  %19 = getelementptr inbounds i8, ptr %3, i64 11
  store i8 %18, ptr %19, align 1
  %20 = lshr i64 %5, 40
  %21 = trunc i64 %20 to i8
  %22 = getelementptr inbounds i8, ptr %3, i64 10
  store i8 %21, ptr %22, align 2
  %23 = lshr i64 %5, 48
  %24 = trunc i64 %23 to i8
  %25 = getelementptr inbounds i8, ptr %3, i64 9
  store i8 %24, ptr %25, align 1
  %26 = lshr i64 %5, 56
  %27 = trunc i64 %26 to i8
  %28 = getelementptr inbounds i8, ptr %3, i64 8
  store i8 %27, ptr %28, align 8
  %29 = getelementptr inbounds i8, ptr %1, i64 72
  %30 = load i64, ptr %29, align 8
  %31 = trunc i64 %30 to i8
  %32 = getelementptr inbounds i8, ptr %3, i64 7
  store i8 %31, ptr %32, align 1
  %33 = lshr i64 %30, 8
  %34 = trunc i64 %33 to i8
  %35 = getelementptr inbounds i8, ptr %3, i64 6
  store i8 %34, ptr %35, align 2
  %36 = lshr i64 %30, 16
  %37 = trunc i64 %36 to i8
  %38 = getelementptr inbounds i8, ptr %3, i64 5
  store i8 %37, ptr %38, align 1
  %39 = lshr i64 %30, 24
  %40 = trunc i64 %39 to i8
  %41 = getelementptr inbounds i8, ptr %3, i64 4
  store i8 %40, ptr %41, align 4
  %42 = lshr i64 %30, 32
  %43 = trunc i64 %42 to i8
  %44 = getelementptr inbounds i8, ptr %3, i64 3
  store i8 %43, ptr %44, align 1
  %45 = lshr i64 %30, 40
  %46 = trunc i64 %45 to i8
  %47 = getelementptr inbounds i8, ptr %3, i64 2
  store i8 %46, ptr %47, align 2
  %48 = lshr i64 %30, 48
  %49 = trunc i64 %48 to i8
  %50 = getelementptr inbounds i8, ptr %3, i64 1
  store i8 %49, ptr %50, align 1
  %51 = lshr i64 %30, 56
  %52 = trunc i64 %51 to i8
  store i8 %52, ptr %3, align 16
  %53 = trunc i64 %5 to i32
  %54 = lshr i32 %53, 3
  %55 = and i32 %54, 127
  %56 = icmp ult i32 %55, 112
  %.v = select i1 %56, i32 112, i32 240
  %57 = sub nsw i32 %.v, %55
  %58 = zext i32 %57 to i64
  %59 = shl nuw nsw i64 %58, 3
  %60 = add i64 %59, %5
  store i64 %60, ptr %4, align 8
  %61 = icmp ult i64 %60, %59
  %62 = zext i1 %61 to i64
  %63 = add i64 %30, %62
  store i64 %63, ptr %29, align 8
  %64 = sub nuw nsw i32 128, %55
  %.not.i = icmp ugt i32 %64, %57
  br i1 %.not.i, label %76, label %65

65:                                               ; preds = %2
  %66 = zext nneg i32 %64 to i64
  %67 = getelementptr inbounds i8, ptr %1, i64 80
  %68 = zext nneg i32 %55 to i64
  %69 = getelementptr inbounds [128 x i8], ptr %67, i64 0, i64 %68
  tail call void @llvm.memcpy.p0.p0.i64(ptr noundef nonnull align 1 dereferenceable(1) %69, ptr noundef nonnull align 16 dereferenceable(1) @PADDING, i64 %66, i1 false)
  tail call fastcc void @SHA512Transform(ptr noundef nonnull %1, ptr noundef nonnull %67)
  %70 = add nuw nsw i64 %66, 127
  %71 = icmp ult i64 %70, %58
  br i1 %71, label %.lr.ph.i, label %PHP_SHA512Update.exit

.lr.ph.i:                                         ; preds = %65, %.lr.ph.i
  %.031.i = phi i64 [ %73, %.lr.ph.i ], [ %66, %65 ]
  %72 = getelementptr inbounds i8, ptr @PADDING, i64 %.031.i
  tail call fastcc void @SHA512Transform(ptr noundef %1, ptr noundef nonnull %72)
  %73 = add nuw nsw i64 %.031.i, 128
  %74 = add nuw nsw i64 %.031.i, 255
  %75 = icmp ult i64 %74, %58
  br i1 %75, label %.lr.ph.i, label %PHP_SHA512Update.exit

76:                                               ; preds = %2
  %77 = zext nneg i32 %55 to i64
  br label %PHP_SHA512Update.exit

PHP_SHA512Update.exit:                            ; preds = %.lr.ph.i, %65, %76
  %.028.i = phi i64 [ %77, %76 ], [ 0, %65 ], [ 0, %.lr.ph.i ]
  %.1.i = phi i64 [ 0, %76 ], [ %66, %65 ], [ %73, %.lr.ph.i ]
  %78 = getelementptr inbounds i8, ptr %1, i64 80
  %79 = getelementptr inbounds [128 x i8], ptr %78, i64 0, i64 %.028.i
  %80 = getelementptr inbounds i8, ptr @PADDING, i64 %.1.i
  %81 = sub i64 %58, %.1.i
  tail call void @llvm.memcpy.p0.p0.i64(ptr nonnull align 1 %79, ptr nonnull align 1 %80, i64 %81, i1 false)
  %82 = load i64, ptr %4, align 8
  %83 = trunc i64 %82 to i32
  %84 = lshr i32 %83, 3
  %85 = and i32 %84, 127
  %86 = add i64 %82, 128
  store i64 %86, ptr %4, align 8
  %87 = icmp ugt i64 %82, -129
  %88 = load i64, ptr %29, align 8
  %89 = zext i1 %87 to i64
  %90 = add i64 %88, %89
  store i64 %90, ptr %29, align 8
  %.not.i25 = icmp ult i32 %85, 112
  br i1 %.not.i25, label %96, label %91

91:                                               ; preds = %PHP_SHA512Update.exit
  %92 = sub nuw nsw i32 128, %85
  %93 = zext nneg i32 %92 to i64
  %94 = zext nneg i32 %85 to i64
  %95 = getelementptr inbounds [128 x i8], ptr %78, i64 0, i64 %94
  call void @llvm.memcpy.p0.p0.i64(ptr noundef nonnull align 1 dereferenceable(1) %95, ptr noundef nonnull align 16 dereferenceable(1) %3, i64 %93, i1 false)
  tail call fastcc void @SHA512Transform(ptr noundef nonnull %1, ptr noundef nonnull %78)
  br label %PHP_SHA512Update.exit28

96:                                               ; preds = %PHP_SHA512Update.exit
  %97 = zext nneg i32 %85 to i64
  br label %PHP_SHA512Update.exit28

PHP_SHA512Update.exit28:                          ; preds = %91, %96
  %.028.i26 = phi i64 [ %97, %96 ], [ 0, %91 ]
  %.1.i27 = phi i64 [ 0, %96 ], [ %93, %91 ]
  %98 = getelementptr inbounds [128 x i8], ptr %78, i64 0, i64 %.028.i26
  %99 = getelementptr inbounds i8, ptr %3, i64 %.1.i27
  %100 = sub nuw nsw i64 16, %.1.i27
  call void @llvm.memcpy.p0.p0.i64(ptr nonnull align 1 %98, ptr nonnull align 1 %99, i64 %100, i1 false)
  br label %.lr.ph.i29

.lr.ph.i29:                                       ; preds = %.lr.ph.i29, %PHP_SHA512Update.exit28
  %indvars.iv38.i = phi i64 [ 0, %PHP_SHA512Update.exit28 ], [ %indvars.iv.next39.i, %.lr.ph.i29 ]
  %indvars.iv.i = phi i64 [ 0, %PHP_SHA512Update.exit28 ], [ %indvars.iv.next.i, %.lr.ph.i29 ]
  %101 = getelementptr inbounds i64, ptr %1, i64 %indvars.iv38.i
  %102 = load i64, ptr %101, align 8
  %103 = lshr i64 %102, 56
  %104 = trunc i64 %103 to i8
  %105 = getelementptr inbounds i8, ptr %0, i64 %indvars.iv.i
  store i8 %104, ptr %105, align 1
  %106 = load i64, ptr %101, align 8
  %107 = lshr i64 %106, 48
  %108 = trunc i64 %107 to i8
  %109 = or disjoint i64 %indvars.iv.i, 1
  %110 = getelementptr inbounds i8, ptr %0, i64 %109
  store i8 %108, ptr %110, align 1
  %111 = load i64, ptr %101, align 8
  %112 = lshr i64 %111, 40
  %113 = trunc i64 %112 to i8
  %114 = or disjoint i64 %indvars.iv.i, 2
  %115 = getelementptr inbounds i8, ptr %0, i64 %114
  store i8 %113, ptr %115, align 1
  %116 = load i64, ptr %101, align 8
  %117 = lshr i64 %116, 32
  %118 = trunc i64 %117 to i8
  %119 = or disjoint i64 %indvars.iv.i, 3
  %120 = getelementptr inbounds i8, ptr %0, i64 %119
  store i8 %118, ptr %120, align 1
  %121 = load i64, ptr %101, align 8
  %122 = lshr i64 %121, 24
  %123 = trunc i64 %122 to i8
  %124 = or disjoint i64 %indvars.iv.i, 4
  %125 = getelementptr inbounds i8, ptr %0, i64 %124
  store i8 %123, ptr %125, align 1
  %126 = load i64, ptr %101, align 8
  %127 = lshr i64 %126, 16
  %128 = trunc i64 %127 to i8
  %129 = or disjoint i64 %indvars.iv.i, 5
  %130 = getelementptr inbounds i8, ptr %0, i64 %129
  store i8 %128, ptr %130, align 1
  %131 = load i64, ptr %101, align 8
  %132 = lshr i64 %131, 8
  %133 = trunc i64 %132 to i8
  %134 = or disjoint i64 %indvars.iv.i, 6
  %135 = getelementptr inbounds i8, ptr %0, i64 %134
  store i8 %133, ptr %135, align 1
  %136 = load i64, ptr %101, align 8
  %137 = trunc i64 %136 to i8
  %138 = or disjoint i64 %indvars.iv.i, 7
  %139 = getelementptr inbounds i8, ptr %0, i64 %138
  store i8 %137, ptr %139, align 1
  %indvars.iv.next39.i = add nuw nsw i64 %indvars.iv38.i, 1
  %indvars.iv.next.i = add nuw nsw i64 %indvars.iv.i, 8
  %exitcond.not.i = icmp eq i64 %indvars.iv.next39.i, 8
  br i1 %exitcond.not.i, label %SHAEncode64.exit, label %.lr.ph.i29

SHAEncode64.exit:                                 ; preds = %.lr.ph.i29
  tail call void @explicit_bzero(ptr noundef nonnull %1, i64 noundef 208) #7
  ret void
}